target datalayout = "e-m:e-p270:32:32-p271:32:32-p272:64:64-i64:64-i128:128-f80:128-n8:16:32:64-S128"
target triple = "x86_64-pc-linux-gnu"

%struct.ImGuiInputTextCallbackData = type { ptr, i32, i32, ptr, i16, i32, ptr, i32, i32, i8, i32, i32, i32 }

; Function Attrs: mustprogress nounwind uwtable
define internal noundef i32 @_ZZL21ShowDemoWindowWidgetsP19ImGuiDemoWindowDataEN11TextFilters16FilterCasingSwapEP26ImGuiInputTextCallbackData(ptr noundef %0) #4 align 2 {
  %2 = alloca ptr, align 8
  store ptr %0, ptr %2, align 8, !tbaa !433
  %3 = load ptr, ptr %2, align 8, !tbaa !433
  %4 = getelementptr inbounds nuw %struct.ImGuiInputTextCallbackData, ptr %3, i32 0, i32 4
  %5 = load i16, ptr %4, align 8, !tbaa !435
  %6 = zext i16 %5 to i32
  %7 = icmp sge i32 %6, 97
  br i1 %7, label %8, label %21

8:                                                ; preds = %1
  %9 = load ptr, ptr %2, align 8, !tbaa !433
  %10 = getelementptr inbounds nuw %struct.ImGuiInputTextCallbackData, ptr %9, i32 0, i32 4
  %11 = load i16, ptr %10, align 8, !tbaa !435
  %12 = zext i16 %11 to i32
  %13 = icmp sle i32 %12, 122
  br i1 %13, label %14, label %21

14:                                               ; preds = %8
  %15 = load ptr, ptr %2, align 8, !tbaa !433
  %16 = getelementptr inbounds nuw %struct.ImGuiInputTextCallbackData, ptr %15, i32 0, i32 4
  %17 = load i16, ptr %16, align 8, !tbaa !435
  %18 = zext i16 %17 to i32
  %19 = sub nsw i32 %18, 32
  %20 = trunc i32 %19 to i16
  store i16 %20, ptr %16, align 8, !tbaa !435
  br label %41

21:                                               ; preds = %8, %1
  %22 = load ptr, ptr %2, align 8, !tbaa !433
  %23 = getelementptr inbounds nuw %struct.ImGuiInputTextCallbackData, ptr %22, i32 0, i32 4
  %24 = load i16, ptr %23, align 8, !tbaa !435
  %25 = zext i16 %24 to i32
  %26 = icmp sge i32 %25, 65
  br i1 %26, label %27, label %40

27:                                               ; preds = %21
  %28 = load ptr, ptr %2, align 8, !tbaa !433
  %29 = getelementptr inbounds nuw %struct.ImGuiInputTextCallbackData, ptr %28, i32 0, i32 4
  %30 = load i16, ptr %29, align 8, !tbaa !435
  %31 = zext i16 %30 to i32
  %32 = icmp sle i32 %31, 90
  br i1 %32, label %33, label %40

33:                                               ; preds = %27
  %34 = load ptr, ptr %2, align 8, !tbaa !433
  %35 = getelementptr inbounds nuw %struct.ImGuiInputTextCallbackData, ptr %34, i32 0, i32 4
  %36 = load i16, ptr %35, align 8, !tbaa !435
  %37 = zext i16 %36 to i32
  %38 = add nsw i32 %37, 32
  %39 = trunc i32 %38 to i16
  store i16 %39, ptr %35, align 8, !tbaa !435
  br label %40

40:                                               ; preds = %33, %27, %21
  br label %41

41:                                               ; preds = %40, %14
  ret i32 0
}